target datalayout = "e-m:e-p270:32:32-p271:32:32-p272:64:64-i64:64-i128:128-f80:128-n8:16:32:64-S128"
target triple = "x86_64-pc-linux-gnu"

%"struct.OpenColorIO_v2_5dev::GradingRGBMSW" = type { double, double, double, double, double, double }

; Function Attrs: mustprogress nounwind uwtable
define hidden noundef float @_ZN19OpenColorIO_v2_5dev15GetChannelValueERKNS_13GradingRGBMSWENS_11RGBMChannelE(ptr noundef nonnull align 8 dereferenceable(48) %0, i32 noundef %1) #4 {
  %3 = alloca float, align 4
  %4 = alloca ptr, align 8
  %5 = alloca i32, align 4
  store ptr %0, ptr %4, align 8, !tbaa !3
  store i32 %1, ptr %5, align 4, !tbaa !31
  %6 = load i32, ptr %5, align 4, !tbaa !31
  %7 = icmp eq i32 %6, 0
  br i1 %7, label %8, label %13

8:                                                ; preds = %2
  %9 = load ptr, ptr %4, align 8, !tbaa !3
  %10 = getelementptr inbounds nuw %"struct.OpenColorIO_v2_5dev::GradingRGBMSW", ptr %9, i32 0, i32 0
  %11 = load double, ptr %10, align 8, !tbaa !8
  %12 = fptrunc double %11 to float
  store float %12, ptr %3, align 4
  br label %40

13:                                               ; preds = %2
  %14 = load i32, ptr %5, align 4, !tbaa !31
  %15 = icmp eq i32 %14, 1
  br i1 %15, label %16, label %21

16:                                               ; preds = %13
  %17 = load ptr, ptr %4, align 8, !tbaa !3
  %18 = getelementptr inbounds nuw %"struct.OpenColorIO_v2_5dev::GradingRGBMSW", ptr %17, i32 0, i32 1
  %19 = load double, ptr %18, align 8, !tbaa !11
  %20 = fptrunc double %19 to float
  store float %20, ptr %3, align 4
  br label %40

21:                                               ; preds = %13
  %22 = load i32, ptr %5, align 4, !tbaa !31
  %23 = icmp eq i32 %22, 2
  br i1 %23, label %24, label %29

24:                                               ; preds = %21
  %25 = load ptr, ptr %4, align 8, !tbaa !3
  %26 = getelementptr inbounds nuw %"struct.OpenColorIO_v2_5dev::GradingRGBMSW", ptr %25, i32 0, i32 2
  %27 = load double, ptr %26, align 8, !tbaa !12
  %28 = fptrunc double %27 to float
  store float %28, ptr %3, align 4
  br label %40

29:                                               ; preds = %21
  br label %30

30:                                               ; preds = %29
  br label %31

31:                                               ; preds = %30
  %32 = load i32, ptr %5, align 4, !tbaa !31
  %33 = icmp eq i32 %32, 3
  br i1 %33, label %34, label %39

34:                                               ; preds = %31
  %35 = load ptr, ptr %4, align 8, !tbaa !3
  %36 = getelementptr inbounds nuw %"struct.OpenColorIO_v2_5dev::GradingRGBMSW", ptr %35, i32 0, i32 3
  %37 = load double, ptr %36, align 8, !tbaa !13
  %38 = fptrunc double %37 to float
  store float %38, ptr %3, align 4
  br label %40

39:                                               ; preds = %31
  store float 0.000000e+00, ptr %3, align 4
  br label %40

40:                                               ; preds = %39, %34, %24, %16, %8
  %41 = load float, ptr %3, align 4
  ret float %41
}