; Function Attrs: mustprogress nofree norecurse nosync nounwind willreturn memory(argmem: read) uwtable
define hidden noundef float @_ZN19OpenColorIO_v2_5dev15GetChannelValueERKNS_13GradingRGBMSWENS_11RGBMChannelE(ptr noundef nonnull readonly align 8 captures(none) dereferenceable(48) %0, i32 noundef %1) local_unnamed_addr #3 {
  switch i32 %1, label %18 [
    i32 0, label %3
    i32 1, label %6
    i32 2, label %10
    i32 3, label %14
  ]

3:                                                ; preds = %2
  %4 = load double, ptr %0, align 8, !tbaa !3
  %5 = fptrunc double %4 to float
  br label %18

6:                                                ; preds = %2
  %7 = getelementptr inbounds nuw i8, ptr %0, i64 8
  %8 = load double, ptr %7, align 8, !tbaa !8
  %9 = fptrunc double %8 to float
  br label %18

10:                                               ; preds = %2
  %11 = getelementptr inbounds nuw i8, ptr %0, i64 16
  %12 = load double, ptr %11, align 8, !tbaa !9
  %13 = fptrunc double %12 to float
  br label %18

14:                                               ; preds = %2
  %15 = getelementptr inbounds nuw i8, ptr %0, i64 24
  %16 = load double, ptr %15, align 8, !tbaa !10
  %17 = fptrunc double %16 to float
  br label %18

18:                                               ; preds = %2, %14, %10, %6, %3
  %.0 = phi float [ %5, %3 ], [ %9, %6 ], [ %13, %10 ], [ %17, %14 ], [ 0.000000e+00, %2 ]
  ret float %.0
}